; Function Attrs: nounwind uwtable
define nonnull ptr @l_Lean_Elab_Term_mkFreshIdent___at_Lake_expandBinderIdent___spec__1(ptr noundef %0, i8 noundef zeroext %1, ptr noundef %2, ptr noundef %3) local_unnamed_addr #0 {
  %5 = tail call ptr @l_Lean_Elab_Term_mkFreshBinderName___at_Lake_expandBinderIdent___spec__2(ptr noundef %2, ptr noundef %3)
  %.val = load i32, ptr %5, align 4, !tbaa !4
  %6 = icmp eq i32 %.val, 1
  %7 = getelementptr inbounds nuw i8, ptr %5, i64 8
  %8 = load ptr, ptr %7, align 8, !tbaa !11
  br i1 %6, label %9, label %11

9:                                                ; preds = %4
  %10 = tail call ptr @l_Lean_mkIdentFrom(ptr noundef %0, ptr noundef %8, i8 noundef zeroext %1) #5
  store ptr %10, ptr %7, align 8, !tbaa !11
  br label %45

11:                                               ; preds = %4
  %12 = getelementptr inbounds nuw i8, ptr %5, i64 16
  %13 = load ptr, ptr %12, align 8, !tbaa !11
  %14 = ptrtoint ptr %13 to i64
  %15 = and i64 %14, 1
  %.not = icmp eq i64 %15, 0
  br i1 %.not, label %16, label %lean_inc.exit24

16:                                               ; preds = %11
  %.val.i = load i32, ptr %13, align 4, !tbaa !4
  %17 = icmp sgt i32 %.val.i, 0
  br i1 %17, label %18, label %20, !prof !9

18:                                               ; preds = %16
  %19 = add nuw i32 %.val.i, 1
  store i32 %19, ptr %13, align 4, !tbaa !4
  br label %lean_inc.exit24

20:                                               ; preds = %16
  %.not.i25 = icmp eq i32 %.val.i, 0
  br i1 %.not.i25, label %lean_inc.exit24, label %21

21:                                               ; preds = %20
  tail call void @lean_inc_ref_cold(ptr noundef nonnull %13) #5
  br label %lean_inc.exit24

lean_inc.exit24:                                  ; preds = %21, %20, %18, %11
  %22 = ptrtoint ptr %8 to i64
  %23 = and i64 %22, 1
  %.not29 = icmp eq i64 %23, 0
  br i1 %.not29, label %24, label %lean_inc.exit

24:                                               ; preds = %lean_inc.exit24
  %.val.i26 = load i32, ptr %8, align 4, !tbaa !4
  %25 = icmp sgt i32 %.val.i26, 0
  br i1 %25, label %26, label %28, !prof !9

26:                                               ; preds = %24
  %27 = add nuw i32 %.val.i26, 1
  store i32 %27, ptr %8, align 4, !tbaa !4
  br label %lean_inc.exit

28:                                               ; preds = %24
  %.not.i27 = icmp eq i32 %.val.i26, 0
  br i1 %.not.i27, label %lean_inc.exit, label %29

29:                                               ; preds = %28
  tail call void @lean_inc_ref_cold(ptr noundef nonnull %8) #5
  br label %lean_inc.exit

lean_inc.exit:                                    ; preds = %29, %28, %26, %lean_inc.exit24
  %30 = ptrtoint ptr %5 to i64
  %31 = and i64 %30, 1
  %.not30 = icmp eq i64 %31, 0
  br i1 %.not30, label %32, label %lean_dec.exit

32:                                               ; preds = %lean_inc.exit
  %33 = icmp sgt i32 %.val, 1
  br i1 %33, label %34, label %36, !prof !9

34:                                               ; preds = %32
  %35 = add nsw i32 %.val, -1
  store i32 %35, ptr %5, align 4, !tbaa !4
  br label %lean_dec.exit

36:                                               ; preds = %32
  %.not.i = icmp eq i32 %.val, 0
  br i1 %.not.i, label %lean_dec.exit, label %37

37:                                               ; preds = %36
  tail call void @lean_dec_ref_cold(ptr noundef nonnull %5) #5
  br label %lean_dec.exit

lean_dec.exit:                                    ; preds = %37, %36, %34, %lean_inc.exit
  %38 = tail call ptr @l_Lean_mkIdentFrom(ptr noundef %0, ptr noundef %8, i8 noundef zeroext %1) #5
  tail call void @lean_inc_heartbeat() #5
  %39 = tail call noalias ptr @mi_malloc_small(i64 noundef 24) #5
  %40 = icmp eq ptr %39, null
  br i1 %40, label %41, label %lean_alloc_ctor.exit

41:                                               ; preds = %lean_dec.exit
  tail call void @lean_internal_panic_out_of_memory() #6
  unreachable

lean_alloc_ctor.exit:                             ; preds = %lean_dec.exit
  %42 = getelementptr inbounds nuw i8, ptr %39, i64 4
  store i32 1, ptr %39, align 4, !tbaa !4
  store i32 131096, ptr %42, align 4
  %43 = getelementptr inbounds nuw i8, ptr %39, i64 8
  store ptr %38, ptr %43, align 8, !tbaa !11
  %44 = getelementptr inbounds nuw i8, ptr %39, i64 16
  store ptr %13, ptr %44, align 8, !tbaa !11
  br label %45

45:                                               ; preds = %lean_alloc_ctor.exit, %9
  %.0 = phi ptr [ %5, %9 ], [ %39, %lean_alloc_ctor.exit ]
  ret ptr %.0
}